; Function Attrs: mustprogress nounwind uwtable
define dso_local noundef zeroext i1 @_ZN5clang8comments4Sema17isAnyFunctionDeclEv(ptr nocapture noundef nonnull readonly align 8 dereferenceable(168) %0) local_unnamed_addr #0 align 2 {
  %2 = getelementptr inbounds nuw i8, ptr %0, i64 40
  %3 = load ptr, ptr %2, align 8
  %.not.i = icmp eq ptr %3, null
  br i1 %.not.i, label %_ZN5clang8comments4Sema14isFunctionDeclEv.exit.thread, label %4

4:                                                ; preds = %1
  %5 = getelementptr inbounds nuw i8, ptr %3, i64 48
  %6 = load i16, ptr %5, align 8
  %7 = and i16 %6, 1
  %.not3.i = icmp eq i16 %7, 0
  br i1 %.not3.i, label %8, label %_ZN5clang8comments4Sema14isFunctionDeclEv.exit

8:                                                ; preds = %4
  tail call void @_ZN5clang8comments8DeclInfo4fillEv(ptr noundef nonnull align 8 dereferenceable(50) %3) #17
  %.pre.i = load ptr, ptr %2, align 8
  %.phi.trans.insert.i = getelementptr inbounds nuw i8, ptr %.pre.i, i64 48
  %.pre4.i = load i16, ptr %.phi.trans.insert.i, align 8
  br label %_ZN5clang8comments4Sema14isFunctionDeclEv.exit

_ZN5clang8comments4Sema14isFunctionDeclEv.exit:   ; preds = %4, %8
  %9 = phi ptr [ %.pre.i, %8 ], [ %3, %4 ]
  %10 = phi i16 [ %.pre4.i, %8 ], [ %6, %4 ]
  %11 = and i16 %10, 14
  %12 = icmp eq i16 %11, 2
  br i1 %12, label %13, label %_ZN5clang8comments4Sema14isFunctionDeclEv.exit.thread

13:                                               ; preds = %_ZN5clang8comments4Sema14isFunctionDeclEv.exit
  %14 = getelementptr inbounds nuw i8, ptr %9, i64 8
  %15 = load ptr, ptr %14, align 8
  %.not = icmp eq ptr %15, null
  br i1 %.not, label %_ZN5clang8comments4Sema14isFunctionDeclEv.exit.thread, label %16

16:                                               ; preds = %13
  %17 = getelementptr inbounds nuw i8, ptr %15, i64 28
  %18 = load i32, ptr %17, align 4
  %19 = and i32 %18, 127
  %20 = add nsw i32 %19, -31
  %21 = icmp ult i32 %20, 6
  br label %_ZN5clang8comments4Sema14isFunctionDeclEv.exit.thread

_ZN5clang8comments4Sema14isFunctionDeclEv.exit.thread: ; preds = %1, %16, %13, %_ZN5clang8comments4Sema14isFunctionDeclEv.exit
  %22 = phi i1 [ false, %13 ], [ false, %_ZN5clang8comments4Sema14isFunctionDeclEv.exit ], [ %21, %16 ], [ false, %1 ]
  ret i1 %22
}